; Function Attrs: nounwind uwtable
define void @Ifd_ManTruthAll(ptr noundef %0) local_unnamed_addr #5 {
  %2 = alloca i32, align 4
  %3 = getelementptr inbounds nuw i8, ptr %0, i64 8
  %4 = load i32, ptr %3, align 8, !tbaa !16
  %5 = icmp sgt i32 %4, 0
  br i1 %5, label %.lr.ph, label %._crit_edge

.lr.ph:                                           ; preds = %1
  %6 = getelementptr inbounds nuw i8, ptr %0, i64 48
  br label %7

7:                                                ; preds = %.lr.ph, %Vec_WrdPush.exit
  %.06 = phi i32 [ 0, %.lr.ph ], [ %43, %Vec_WrdPush.exit ]
  call void @llvm.lifetime.start.p0(i64 4, ptr nonnull %2) #28
  store i32 0, ptr %2, align 4, !tbaa !37
  %cond = icmp eq i32 %.06, 0
  br i1 %cond, label %Ifd_ObjTruth.exit, label %8

8:                                                ; preds = %7
  %9 = shl nuw nsw i32 %.06, 1
  %10 = call i64 @Ifd_ObjTruth_rec(ptr noundef nonnull %0, i32 noundef %9, ptr noundef nonnull %2)
  br label %Ifd_ObjTruth.exit

Ifd_ObjTruth.exit:                                ; preds = %7, %8
  %.0.i = phi i64 [ %10, %8 ], [ 0, %7 ]
  call void @llvm.lifetime.end.p0(i64 4, ptr nonnull %2) #28
  %11 = load ptr, ptr %6, align 8, !tbaa !39
  %12 = getelementptr inbounds nuw i8, ptr %11, i64 4
  %13 = load i32, ptr %12, align 4, !tbaa !29
  %14 = load i32, ptr %11, align 8, !tbaa !32
  %15 = icmp eq i32 %13, %14
  br i1 %15, label %16, label %.Vec_WrdGrow.exit10_crit_edge.i

.Vec_WrdGrow.exit10_crit_edge.i:                  ; preds = %Ifd_ObjTruth.exit
  %.phi.trans.insert.i = getelementptr inbounds nuw i8, ptr %11, i64 8
  %.pre.i = load ptr, ptr %.phi.trans.insert.i, align 8, !tbaa !33
  br label %Vec_WrdPush.exit

16:                                               ; preds = %Ifd_ObjTruth.exit
  %17 = icmp slt i32 %13, 16
  br i1 %17, label %18, label %26

18:                                               ; preds = %16
  %19 = getelementptr inbounds nuw i8, ptr %11, i64 8
  %20 = load ptr, ptr %19, align 8, !tbaa !33
  %.not9.i.i = icmp eq ptr %20, null
  br i1 %.not9.i.i, label %23, label %21

21:                                               ; preds = %18
  %22 = call dereferenceable_or_null(128) ptr @realloc(ptr noundef nonnull %20, i64 noundef 128) #29
  br label %Vec_WrdGrow.exit.i

23:                                               ; preds = %18
  %24 = call noalias dereferenceable_or_null(128) ptr @malloc(i64 noundef 128) #27
  br label %Vec_WrdGrow.exit.i

Vec_WrdGrow.exit.i:                               ; preds = %23, %21
  %25 = phi ptr [ %22, %21 ], [ %24, %23 ]
  store ptr %25, ptr %19, align 8, !tbaa !33
  store i32 16, ptr %11, align 8, !tbaa !32
  br label %Vec_WrdPush.exit

26:                                               ; preds = %16
  %27 = shl nuw nsw i32 %13, 1
  %28 = getelementptr inbounds nuw i8, ptr %11, i64 8
  %29 = load ptr, ptr %28, align 8, !tbaa !33
  %.not9.i9.i = icmp eq ptr %29, null
  %30 = zext nneg i32 %27 to i64
  %31 = shl nuw nsw i64 %30, 3
  br i1 %.not9.i9.i, label %34, label %32

32:                                               ; preds = %26
  %33 = call ptr @realloc(ptr noundef nonnull %29, i64 noundef %31) #29
  br label %36

34:                                               ; preds = %26
  %35 = call noalias ptr @malloc(i64 noundef %31) #27
  br label %36

36:                                               ; preds = %34, %32
  %37 = phi ptr [ %33, %32 ], [ %35, %34 ]
  store ptr %37, ptr %28, align 8, !tbaa !33
  store i32 %27, ptr %11, align 8, !tbaa !32
  br label %Vec_WrdPush.exit

Vec_WrdPush.exit:                                 ; preds = %.Vec_WrdGrow.exit10_crit_edge.i, %Vec_WrdGrow.exit.i, %36
  %38 = phi ptr [ %.pre.i, %.Vec_WrdGrow.exit10_crit_edge.i ], [ %37, %36 ], [ %25, %Vec_WrdGrow.exit.i ]
  %39 = load i32, ptr %12, align 4, !tbaa !29
  %40 = add nsw i32 %39, 1
  store i32 %40, ptr %12, align 4, !tbaa !29
  %41 = sext i32 %39 to i64
  %42 = getelementptr inbounds i64, ptr %38, i64 %41
  store i64 %.0.i, ptr %42, align 8, !tbaa !46
  %43 = add nuw nsw i32 %.06, 1
  %44 = load i32, ptr %3, align 8, !tbaa !16
  %45 = icmp slt i32 %43, %44
  br i1 %45, label %7, label %._crit_edge, !llvm.loop !51

._crit_edge:                                      ; preds = %Vec_WrdPush.exit, %1
  ret void
}